target datalayout = "e-m:e-p270:32:32-p271:32:32-p272:64:64-i64:64-i128:128-f80:128-n8:16:32:64-S128"
target triple = "x86_64-pc-linux-gnu"

%"struct.duckdb_miniz::mz_zip_archive" = type { i64, i64, i32, i32, i32, i32, i64, ptr, ptr, ptr, ptr, ptr, ptr, ptr, ptr, ptr }
%"struct.duckdb_miniz::mz_zip_internal_state_tag" = type { %"struct.duckdb_miniz::mz_zip_array", %"struct.duckdb_miniz::mz_zip_array", %"struct.duckdb_miniz::mz_zip_array", i32, i32, i32, ptr, i64, ptr, i64, i64 }
%"struct.duckdb_miniz::mz_zip_array" = type { ptr, i64, i64, i32 }

; Function Attrs: alwaysinline mustprogress nounwind uwtable
define internal noundef i32 @_ZN12duckdb_minizL24mz_zip_array_range_checkEPKNS_12mz_zip_arrayEj(ptr noundef %0, i32 noundef %1) #8 {
  %3 = alloca ptr, align 8
  %4 = alloca i32, align 4
  store ptr %0, ptr %3, align 8, !tbaa !19
  store i32 %1, ptr %4, align 4, !tbaa !10
  %5 = load i32, ptr %4, align 4, !tbaa !10
  ret i32 %5
}

; Function Attrs: mustprogress uwtable
define noundef i32 @_ZN12duckdb_miniz28mz_zip_reader_extract_to_memEPNS_14mz_zip_archiveEjPvmj(ptr noundef %0, i32 noundef %1, ptr noundef %2, i64 noundef %3, i32 noundef %4) #5 {
  %6 = alloca ptr, align 8
  %7 = alloca i32, align 4
  %8 = alloca ptr, align 8
  %9 = alloca i64, align 8
  %10 = alloca i32, align 4
  store ptr %0, ptr %6, align 8, !tbaa !19
  store i32 %1, ptr %7, align 4, !tbaa !10
  store ptr %2, ptr %8, align 8, !tbaa !19
  store i64 %3, ptr %9, align 8, !tbaa !3
  store i32 %4, ptr %10, align 4, !tbaa !10
  %11 = load ptr, ptr %6, align 8, !tbaa !19
  %12 = load i32, ptr %7, align 4, !tbaa !10
  %13 = load ptr, ptr %8, align 8, !tbaa !19
  %14 = load i64, ptr %9, align 8, !tbaa !3
  %15 = load i32, ptr %10, align 4, !tbaa !10
  %16 = call noundef i32 @_ZN12duckdb_miniz37mz_zip_reader_extract_to_mem_no_allocEPNS_14mz_zip_archiveEjPvmjS2_m(ptr noundef %11, i32 noundef %12, ptr noundef %13, i64 noundef %14, i32 noundef %15, ptr noundef null, i64 noundef 0)
  ret i32 %16
}

; Function Attrs: alwaysinline mustprogress nounwind uwtable
define internal noundef i32 @_ZN12duckdb_minizL16mz_zip_set_errorEPNS_14mz_zip_archiveENS_12mz_zip_errorE(ptr noundef %0, i32 noundef %1) #8 {
  %3 = alloca ptr, align 8
  %4 = alloca i32, align 4
  store ptr %0, ptr %3, align 8, !tbaa !19
  store i32 %1, ptr %4, align 4, !tbaa !242
  %5 = load ptr, ptr %3, align 8, !tbaa !19
  %6 = icmp ne ptr %5, null
  br i1 %6, label %7, label %11

7:                                                ; preds = %2
  %8 = load i32, ptr %4, align 4, !tbaa !242
  %9 = load ptr, ptr %3, align 8, !tbaa !19
  %10 = getelementptr inbounds nuw %"struct.duckdb_miniz::mz_zip_archive", ptr %9, i32 0, i32 5
  store i32 %8, ptr %10, align 4, !tbaa !236
  br label %11

11:                                               ; preds = %7, %2
  ret i32 0
}

; Function Attrs: alwaysinline mustprogress uwtable
define internal noundef ptr @_ZN12duckdb_minizL14mz_zip_get_cdhEPNS_14mz_zip_archiveEj(ptr noundef %0, i32 noundef %1) #9 {
  %3 = alloca ptr, align 8
  %4 = alloca ptr, align 8
  %5 = alloca i32, align 4
  store ptr %0, ptr %4, align 8, !tbaa !19
  store i32 %1, ptr %5, align 4, !tbaa !10
  %6 = load ptr, ptr %4, align 8, !tbaa !19
  %7 = icmp ne ptr %6, null
  br i1 %7, label %8, label %19

8:                                                ; preds = %2
  %9 = load ptr, ptr %4, align 8, !tbaa !19
  %10 = getelementptr inbounds nuw %"struct.duckdb_miniz::mz_zip_archive", ptr %9, i32 0, i32 15
  %11 = load ptr, ptr %10, align 8, !tbaa !227
  %12 = icmp ne ptr %11, null
  br i1 %12, label %13, label %19

13:                                               ; preds = %8
  %14 = load i32, ptr %5, align 4, !tbaa !10
  %15 = load ptr, ptr %4, align 8, !tbaa !19
  %16 = getelementptr inbounds nuw %"struct.duckdb_miniz::mz_zip_archive", ptr %15, i32 0, i32 2
  %17 = load i32, ptr %16, align 8, !tbaa !245
  %18 = icmp uge i32 %14, %17
  br i1 %18, label %19, label %20

19:                                               ; preds = %13, %8, %2
  store ptr null, ptr %3, align 8
  br label %49

20:                                               ; preds = %13
  %21 = load ptr, ptr %4, align 8, !tbaa !19
  %22 = getelementptr inbounds nuw %"struct.duckdb_miniz::mz_zip_archive", ptr %21, i32 0, i32 15
  %23 = load ptr, ptr %22, align 8, !tbaa !227
  %24 = getelementptr inbounds nuw %"struct.duckdb_miniz::mz_zip_internal_state_tag", ptr %23, i32 0, i32 0
  %25 = getelementptr inbounds nuw %"struct.duckdb_miniz::mz_zip_array", ptr %24, i32 0, i32 0
  %26 = load ptr, ptr %25, align 8, !tbaa !255
  %27 = load ptr, ptr %4, align 8, !tbaa !19
  %28 = getelementptr inbounds nuw %"struct.duckdb_miniz::mz_zip_archive", ptr %27, i32 0, i32 15
  %29 = load ptr, ptr %28, align 8, !tbaa !227
  %30 = getelementptr inbounds nuw %"struct.duckdb_miniz::mz_zip_internal_state_tag", ptr %29, i32 0, i32 0
  %31 = load ptr, ptr %4, align 8, !tbaa !19
  %32 = getelementptr inbounds nuw %"struct.duckdb_miniz::mz_zip_archive", ptr %31, i32 0, i32 15
  %33 = load ptr, ptr %32, align 8, !tbaa !227
  %34 = getelementptr inbounds nuw %"struct.duckdb_miniz::mz_zip_internal_state_tag", ptr %33, i32 0, i32 1
  %35 = getelementptr inbounds nuw %"struct.duckdb_miniz::mz_zip_array", ptr %34, i32 0, i32 0
  %36 = load ptr, ptr %35, align 8, !tbaa !256
  %37 = load ptr, ptr %4, align 8, !tbaa !19
  %38 = getelementptr inbounds nuw %"struct.duckdb_miniz::mz_zip_archive", ptr %37, i32 0, i32 15
  %39 = load ptr, ptr %38, align 8, !tbaa !227
  %40 = getelementptr inbounds nuw %"struct.duckdb_miniz::mz_zip_internal_state_tag", ptr %39, i32 0, i32 1
  %41 = load i32, ptr %5, align 4, !tbaa !10
  %42 = call noundef i32 @_ZN12duckdb_minizL24mz_zip_array_range_checkEPKNS_12mz_zip_arrayEj(ptr noundef %40, i32 noundef %41)
  %43 = zext i32 %42 to i64
  %44 = getelementptr inbounds nuw i32, ptr %36, i64 %43
  %45 = load i32, ptr %44, align 4, !tbaa !10
  %46 = call noundef i32 @_ZN12duckdb_minizL24mz_zip_array_range_checkEPKNS_12mz_zip_arrayEj(ptr noundef %30, i32 noundef %45)
  %47 = zext i32 %46 to i64
  %48 = getelementptr inbounds nuw i8, ptr %26, i64 %47
  store ptr %48, ptr %3, align 8
  br label %49

49:                                               ; preds = %20, %19
  %50 = load ptr, ptr %3, align 8
  ret ptr %50
}

; Function Attrs: mustprogress uwtable
define noundef ptr @_ZN12duckdb_miniz29mz_zip_reader_extract_to_heapEPNS_14mz_zip_archiveEjPmj(ptr noundef %0, i32 noundef %1, ptr noundef %2, i32 noundef %3) #5 {
  %5 = alloca ptr, align 8
  %6 = alloca ptr, align 8
  %7 = alloca i32, align 4
  %8 = alloca ptr, align 8
  %9 = alloca i32, align 4
  %10 = alloca i64, align 8
  %11 = alloca i64, align 8
  %12 = alloca i64, align 8
  %13 = alloca ptr, align 8
  %14 = alloca ptr, align 8
  %15 = alloca i32, align 4
  store ptr %0, ptr %6, align 8, !tbaa !19
  store i32 %1, ptr %7, align 4, !tbaa !10
  store ptr %2, ptr %8, align 8, !tbaa !78
  store i32 %3, ptr %9, align 4, !tbaa !10
  call void @llvm.lifetime.start.p0(i64 8, ptr %10) #11
  call void @llvm.lifetime.start.p0(i64 8, ptr %11) #11
  call void @llvm.lifetime.start.p0(i64 8, ptr %12) #11
  call void @llvm.lifetime.start.p0(i64 8, ptr %13) #11
  %16 = load ptr, ptr %6, align 8, !tbaa !19
  %17 = load i32, ptr %7, align 4, !tbaa !10
  %18 = call noundef ptr @_ZN12duckdb_minizL14mz_zip_get_cdhEPNS_14mz_zip_archiveEj(ptr noundef %16, i32 noundef %17)
  store ptr %18, ptr %13, align 8, !tbaa !7
  call void @llvm.lifetime.start.p0(i64 8, ptr %14) #11
  %19 = load ptr, ptr %8, align 8, !tbaa !78
  %20 = icmp ne ptr %19, null
  br i1 %20, label %21, label %23

21:                                               ; preds = %4
  %22 = load ptr, ptr %8, align 8, !tbaa !78
  store i64 0, ptr %22, align 8, !tbaa !3
  br label %23

23:                                               ; preds = %21, %4
  %24 = load ptr, ptr %13, align 8, !tbaa !7
  %25 = icmp ne ptr %24, null
  br i1 %25, label %29, label %26

26:                                               ; preds = %23
  %27 = load ptr, ptr %6, align 8, !tbaa !19
  %28 = call noundef i32 @_ZN12duckdb_minizL16mz_zip_set_errorEPNS_14mz_zip_archiveENS_12mz_zip_errorE(ptr noundef %27, i32 noundef 24)
  store ptr null, ptr %5, align 8
  store i32 1, ptr %15, align 4
  br label %129

29:                                               ; preds = %23
  %30 = load ptr, ptr %13, align 8, !tbaa !7
  %31 = getelementptr inbounds i8, ptr %30, i64 20
  %32 = getelementptr inbounds i8, ptr %31, i64 0
  %33 = load i8, ptr %32, align 1, !tbaa !12
  %34 = zext i8 %33 to i32
  %35 = load ptr, ptr %13, align 8, !tbaa !7
  %36 = getelementptr inbounds i8, ptr %35, i64 20
  %37 = getelementptr inbounds i8, ptr %36, i64 1
  %38 = load i8, ptr %37, align 1, !tbaa !12
  %39 = zext i8 %38 to i32
  %40 = shl i32 %39, 8
  %41 = or i32 %34, %40
  %42 = load ptr, ptr %13, align 8, !tbaa !7
  %43 = getelementptr inbounds i8, ptr %42, i64 20
  %44 = getelementptr inbounds i8, ptr %43, i64 2
  %45 = load i8, ptr %44, align 1, !tbaa !12
  %46 = zext i8 %45 to i32
  %47 = shl i32 %46, 16
  %48 = or i32 %41, %47
  %49 = load ptr, ptr %13, align 8, !tbaa !7
  %50 = getelementptr inbounds i8, ptr %49, i64 20
  %51 = getelementptr inbounds i8, ptr %50, i64 3
  %52 = load i8, ptr %51, align 1, !tbaa !12
  %53 = zext i8 %52 to i32
  %54 = shl i32 %53, 24
  %55 = or i32 %48, %54
  %56 = zext i32 %55 to i64
  store i64 %56, ptr %10, align 8, !tbaa !3
  %57 = load ptr, ptr %13, align 8, !tbaa !7
  %58 = getelementptr inbounds i8, ptr %57, i64 24
  %59 = getelementptr inbounds i8, ptr %58, i64 0
  %60 = load i8, ptr %59, align 1, !tbaa !12
  %61 = zext i8 %60 to i32
  %62 = load ptr, ptr %13, align 8, !tbaa !7
  %63 = getelementptr inbounds i8, ptr %62, i64 24
  %64 = getelementptr inbounds i8, ptr %63, i64 1
  %65 = load i8, ptr %64, align 1, !tbaa !12
  %66 = zext i8 %65 to i32
  %67 = shl i32 %66, 8
  %68 = or i32 %61, %67
  %69 = load ptr, ptr %13, align 8, !tbaa !7
  %70 = getelementptr inbounds i8, ptr %69, i64 24
  %71 = getelementptr inbounds i8, ptr %70, i64 2
  %72 = load i8, ptr %71, align 1, !tbaa !12
  %73 = zext i8 %72 to i32
  %74 = shl i32 %73, 16
  %75 = or i32 %68, %74
  %76 = load ptr, ptr %13, align 8, !tbaa !7
  %77 = getelementptr inbounds i8, ptr %76, i64 24
  %78 = getelementptr inbounds i8, ptr %77, i64 3
  %79 = load i8, ptr %78, align 1, !tbaa !12
  %80 = zext i8 %79 to i32
  %81 = shl i32 %80, 24
  %82 = or i32 %75, %81
  %83 = zext i32 %82 to i64
  store i64 %83, ptr %11, align 8, !tbaa !3
  %84 = load i32, ptr %9, align 4, !tbaa !10
  %85 = and i32 %84, 1024
  %86 = icmp ne i32 %85, 0
  br i1 %86, label %87, label %89

87:                                               ; preds = %29
  %88 = load i64, ptr %10, align 8, !tbaa !3
  br label %91

89:                                               ; preds = %29
  %90 = load i64, ptr %11, align 8, !tbaa !3
  br label %91

91:                                               ; preds = %89, %87
  %92 = phi i64 [ %88, %87 ], [ %90, %89 ]
  store i64 %92, ptr %12, align 8, !tbaa !3
  %93 = load ptr, ptr %6, align 8, !tbaa !19
  %94 = getelementptr inbounds nuw %"struct.duckdb_miniz::mz_zip_archive", ptr %93, i32 0, i32 7
  %95 = load ptr, ptr %94, align 8, !tbaa !233
  %96 = load ptr, ptr %6, align 8, !tbaa !19
  %97 = getelementptr inbounds nuw %"struct.duckdb_miniz::mz_zip_archive", ptr %96, i32 0, i32 10
  %98 = load ptr, ptr %97, align 8, !tbaa !238
  %99 = load i64, ptr %12, align 8, !tbaa !3
  %100 = call noundef ptr %95(ptr noundef %98, i64 noundef 1, i64 noundef %99)
  store ptr %100, ptr %14, align 8, !tbaa !19
  %101 = icmp eq ptr null, %100
  br i1 %101, label %102, label %105

102:                                              ; preds = %91
  %103 = load ptr, ptr %6, align 8, !tbaa !19
  %104 = call noundef i32 @_ZN12duckdb_minizL16mz_zip_set_errorEPNS_14mz_zip_archiveENS_12mz_zip_errorE(ptr noundef %103, i32 noundef 16)
  store ptr null, ptr %5, align 8
  store i32 1, ptr %15, align 4
  br label %129

105:                                              ; preds = %91
  %106 = load ptr, ptr %6, align 8, !tbaa !19
  %107 = load i32, ptr %7, align 4, !tbaa !10
  %108 = load ptr, ptr %14, align 8, !tbaa !19
  %109 = load i64, ptr %12, align 8, !tbaa !3
  %110 = load i32, ptr %9, align 4, !tbaa !10
  %111 = call noundef i32 @_ZN12duckdb_miniz28mz_zip_reader_extract_to_memEPNS_14mz_zip_archiveEjPvmj(ptr noundef %106, i32 noundef %107, ptr noundef %108, i64 noundef %109, i32 noundef %110)
  %112 = icmp ne i32 %111, 0
  br i1 %112, label %121, label %113

113:                                              ; preds = %105
  %114 = load ptr, ptr %6, align 8, !tbaa !19
  %115 = getelementptr inbounds nuw %"struct.duckdb_miniz::mz_zip_archive", ptr %114, i32 0, i32 8
  %116 = load ptr, ptr %115, align 8, !tbaa !234
  %117 = load ptr, ptr %6, align 8, !tbaa !19
  %118 = getelementptr inbounds nuw %"struct.duckdb_miniz::mz_zip_archive", ptr %117, i32 0, i32 10
  %119 = load ptr, ptr %118, align 8, !tbaa !238
  %120 = load ptr, ptr %14, align 8, !tbaa !19
  call void %116(ptr noundef %119, ptr noundef %120)
  store ptr null, ptr %5, align 8
  store i32 1, ptr %15, align 4
  br label %129

121:                                              ; preds = %105
  %122 = load ptr, ptr %8, align 8, !tbaa !78
  %123 = icmp ne ptr %122, null
  br i1 %123, label %124, label %127

124:                                              ; preds = %121
  %125 = load i64, ptr %12, align 8, !tbaa !3
  %126 = load ptr, ptr %8, align 8, !tbaa !78
  store i64 %125, ptr %126, align 8, !tbaa !3
  br label %127

127:                                              ; preds = %124, %121
  %128 = load ptr, ptr %14, align 8, !tbaa !19
  store ptr %128, ptr %5, align 8
  store i32 1, ptr %15, align 4
  br label %129

129:                                              ; preds = %127, %113, %102, %26
  call void @llvm.lifetime.end.p0(i64 8, ptr %14) #11
  call void @llvm.lifetime.end.p0(i64 8, ptr %13) #11
  call void @llvm.lifetime.end.p0(i64 8, ptr %12) #11
  call void @llvm.lifetime.end.p0(i64 8, ptr %11) #11
  call void @llvm.lifetime.end.p0(i64 8, ptr %10) #11
  %130 = load ptr, ptr %5, align 8
  ret ptr %130
}

; Function Attrs: mustprogress uwtable
define noundef ptr @_ZN12duckdb_miniz34mz_zip_reader_extract_file_to_heapEPNS_14mz_zip_archiveEPKcPmj(ptr noundef %0, ptr noundef %1, ptr noundef %2, i32 noundef %3) #5 {
  %5 = alloca ptr, align 8
  %6 = alloca ptr, align 8
  %7 = alloca ptr, align 8
  %8 = alloca ptr, align 8
  %9 = alloca i32, align 4
  %10 = alloca i32, align 4
  %11 = alloca i32, align 4
  store ptr %0, ptr %6, align 8, !tbaa !19
  store ptr %1, ptr %7, align 8, !tbaa !7
  store ptr %2, ptr %8, align 8, !tbaa !78
  store i32 %3, ptr %9, align 4, !tbaa !10
  call void @llvm.lifetime.start.p0(i64 4, ptr %10) #11
  %12 = load ptr, ptr %6, align 8, !tbaa !19
  %13 = load ptr, ptr %7, align 8, !tbaa !7
  %14 = load i32, ptr %9, align 4, !tbaa !10
  %15 = call noundef i32 @_ZN12duckdb_miniz28mz_zip_reader_locate_file_v2EPNS_14mz_zip_archiveEPKcS3_jPj(ptr noundef %12, ptr noundef %13, ptr noundef null, i32 noundef %14, ptr noundef %10)
  %16 = icmp ne i32 %15, 0
  br i1 %16, label %23, label %17

17:                                               ; preds = %4
  %18 = load ptr, ptr %8, align 8, !tbaa !78
  %19 = icmp ne ptr %18, null
  br i1 %19, label %20, label %22

20:                                               ; preds = %17
  %21 = load ptr, ptr %8, align 8, !tbaa !78
  store i64 0, ptr %21, align 8, !tbaa !3
  br label %22

22:                                               ; preds = %20, %17
  store ptr null, ptr %5, align 8
  store i32 1, ptr %11, align 4
  br label %29

23:                                               ; preds = %4
  %24 = load ptr, ptr %6, align 8, !tbaa !19
  %25 = load i32, ptr %10, align 4, !tbaa !10
  %26 = load ptr, ptr %8, align 8, !tbaa !78
  %27 = load i32, ptr %9, align 4, !tbaa !10
  %28 = call noundef ptr @_ZN12duckdb_miniz29mz_zip_reader_extract_to_heapEPNS_14mz_zip_archiveEjPmj(ptr noundef %24, i32 noundef %25, ptr noundef %26, i32 noundef %27)
  store ptr %28, ptr %5, align 8
  store i32 1, ptr %11, align 4
  br label %29

29:                                               ; preds = %23, %22
  call void @llvm.lifetime.end.p0(i64 4, ptr %10) #11
  %30 = load ptr, ptr %5, align 8
  ret ptr %30
}