; Function Attrs: mustprogress uwtable
define noundef ptr @_ZN12duckdb_miniz34mz_zip_reader_extract_file_to_heapEPNS_14mz_zip_archiveEPKcPmj(ptr noundef captures(address_is_null) %0, ptr noundef captures(address_is_null) %1, ptr noundef writeonly captures(address_is_null) %2, i32 noundef %3) local_unnamed_addr #8 {
  %5 = alloca i32, align 4
  call void @llvm.lifetime.start.p0(i64 4, ptr nonnull %5) #25
  %6 = call noundef i32 @_ZN12duckdb_miniz28mz_zip_reader_locate_file_v2EPNS_14mz_zip_archiveEPKcS3_jPj(ptr noundef %0, ptr noundef %1, ptr noundef null, i32 noundef %3, ptr noundef nonnull %5)
  %.not = icmp eq i32 %6, 0
  br i1 %.not, label %7, label %9

7:                                                ; preds = %4
  %.not9 = icmp eq ptr %2, null
  br i1 %.not9, label %_ZN12duckdb_miniz29mz_zip_reader_extract_to_heapEPNS_14mz_zip_archiveEjPmj.exit, label %8

8:                                                ; preds = %7
  store i64 0, ptr %2, align 8, !tbaa !53
  br label %_ZN12duckdb_miniz29mz_zip_reader_extract_to_heapEPNS_14mz_zip_archiveEjPmj.exit

9:                                                ; preds = %4
  %10 = load i32, ptr %5, align 4, !tbaa !10
  %.not.i41.i = icmp eq ptr %0, null
  br i1 %.not.i41.i, label %_ZN12duckdb_minizL14mz_zip_get_cdhEPNS_14mz_zip_archiveEj.exit.i, label %11

11:                                               ; preds = %9
  %12 = getelementptr inbounds nuw i8, ptr %0, i64 104
  %13 = load ptr, ptr %12, align 8, !tbaa !204
  %.not12.i.i = icmp eq ptr %13, null
  br i1 %.not12.i.i, label %_ZN12duckdb_minizL14mz_zip_get_cdhEPNS_14mz_zip_archiveEj.exit.i, label %14

14:                                               ; preds = %11
  %15 = getelementptr inbounds nuw i8, ptr %0, i64 16
  %16 = load i32, ptr %15, align 8, !tbaa !230
  %.not13.i.i = icmp ult i32 %10, %16
  br i1 %.not13.i.i, label %17, label %_ZN12duckdb_minizL14mz_zip_get_cdhEPNS_14mz_zip_archiveEj.exit.i

17:                                               ; preds = %14
  %18 = load ptr, ptr %13, align 8, !tbaa !235
  %19 = getelementptr inbounds nuw i8, ptr %13, i64 32
  %20 = load ptr, ptr %19, align 8, !tbaa !236
  %21 = zext i32 %10 to i64
  %22 = getelementptr inbounds nuw i32, ptr %20, i64 %21
  %23 = load i32, ptr %22, align 4, !tbaa !10
  %24 = zext i32 %23 to i64
  %25 = getelementptr inbounds nuw i8, ptr %18, i64 %24
  br label %_ZN12duckdb_minizL14mz_zip_get_cdhEPNS_14mz_zip_archiveEj.exit.i

_ZN12duckdb_minizL14mz_zip_get_cdhEPNS_14mz_zip_archiveEj.exit.i: ; preds = %17, %14, %11, %9
  %.0.i.i = phi ptr [ %25, %17 ], [ null, %14 ], [ null, %11 ], [ null, %9 ]
  %.not.i = icmp eq ptr %2, null
  br i1 %.not.i, label %27, label %26

26:                                               ; preds = %_ZN12duckdb_minizL14mz_zip_get_cdhEPNS_14mz_zip_archiveEj.exit.i
  store i64 0, ptr %2, align 8, !tbaa !53
  br label %27

27:                                               ; preds = %26, %_ZN12duckdb_minizL14mz_zip_get_cdhEPNS_14mz_zip_archiveEj.exit.i
  %.not36.i = icmp eq ptr %.0.i.i, null
  br i1 %.not36.i, label %28, label %31

28:                                               ; preds = %27
  br i1 %.not.i41.i, label %_ZN12duckdb_miniz29mz_zip_reader_extract_to_heapEPNS_14mz_zip_archiveEjPmj.exit, label %29

29:                                               ; preds = %28
  %30 = getelementptr inbounds nuw i8, ptr %0, i64 28
  store i32 24, ptr %30, align 4, !tbaa !213
  br label %_ZN12duckdb_miniz29mz_zip_reader_extract_to_heapEPNS_14mz_zip_archiveEjPmj.exit

31:                                               ; preds = %27
  %32 = getelementptr inbounds nuw i8, ptr %.0.i.i, i64 20
  %33 = load i32, ptr %32, align 1
  %34 = getelementptr inbounds nuw i8, ptr %.0.i.i, i64 24
  %35 = load i32, ptr %34, align 1
  %36 = and i32 %3, 1024
  %.not37.i = icmp eq i32 %36, 0
  %.v.i = select i1 %.not37.i, i32 %35, i32 %33
  %37 = zext i32 %.v.i to i64
  %38 = getelementptr inbounds nuw i8, ptr %0, i64 40
  %39 = load ptr, ptr %38, align 8, !tbaa !210
  %40 = getelementptr inbounds nuw i8, ptr %0, i64 64
  %41 = load ptr, ptr %40, align 8, !tbaa !214
  %42 = call noundef ptr %39(ptr noundef %41, i64 noundef 1, i64 noundef %37)
  %43 = icmp eq ptr %42, null
  br i1 %43, label %_ZN12duckdb_minizL16mz_zip_set_errorEPNS_14mz_zip_archiveENS_12mz_zip_errorE.exit.i, label %45

_ZN12duckdb_minizL16mz_zip_set_errorEPNS_14mz_zip_archiveENS_12mz_zip_errorE.exit.i: ; preds = %31
  %44 = getelementptr inbounds nuw i8, ptr %0, i64 28
  store i32 16, ptr %44, align 4, !tbaa !213
  br label %_ZN12duckdb_miniz29mz_zip_reader_extract_to_heapEPNS_14mz_zip_archiveEjPmj.exit

45:                                               ; preds = %31
  %46 = call noundef range(i32 0, 2) i32 @_ZN12duckdb_miniz37mz_zip_reader_extract_to_mem_no_allocEPNS_14mz_zip_archiveEjPvmjS2_m(ptr noundef nonnull %0, i32 noundef %10, ptr noundef nonnull %42, i64 noundef %37, i32 noundef %3, ptr noundef null, i64 noundef 0)
  %.not38.i = icmp eq i32 %46, 0
  br i1 %.not38.i, label %47, label %51

47:                                               ; preds = %45
  %48 = getelementptr inbounds nuw i8, ptr %0, i64 48
  %49 = load ptr, ptr %48, align 8, !tbaa !211
  %50 = load ptr, ptr %40, align 8, !tbaa !214
  call void %49(ptr noundef %50, ptr noundef nonnull %42)
  br label %_ZN12duckdb_miniz29mz_zip_reader_extract_to_heapEPNS_14mz_zip_archiveEjPmj.exit

51:                                               ; preds = %45
  br i1 %.not.i, label %_ZN12duckdb_miniz29mz_zip_reader_extract_to_heapEPNS_14mz_zip_archiveEjPmj.exit, label %52

52:                                               ; preds = %51
  store i64 %37, ptr %2, align 8, !tbaa !53
  br label %_ZN12duckdb_miniz29mz_zip_reader_extract_to_heapEPNS_14mz_zip_archiveEjPmj.exit

_ZN12duckdb_miniz29mz_zip_reader_extract_to_heapEPNS_14mz_zip_archiveEjPmj.exit: ; preds = %52, %51, %47, %_ZN12duckdb_minizL16mz_zip_set_errorEPNS_14mz_zip_archiveENS_12mz_zip_errorE.exit.i, %29, %28, %7, %8
  %.0 = phi ptr [ null, %8 ], [ null, %7 ], [ null, %_ZN12duckdb_minizL16mz_zip_set_errorEPNS_14mz_zip_archiveENS_12mz_zip_errorE.exit.i ], [ null, %47 ], [ %42, %52 ], [ %42, %51 ], [ null, %28 ], [ null, %29 ]
  call void @llvm.lifetime.end.p0(i64 4, ptr nonnull %5) #25
  ret ptr %.0
}